target datalayout = "e-m:e-p270:32:32-p271:32:32-p272:64:64-i64:64-i128:128-f80:128-n8:16:32:64-S128"
target triple = "x86_64-pc-linux-gnu"

%"struct.std::nothrow_t" = type { i8 }
%"class.zmq::ws_connecter_t" = type { %"class.zmq::stream_connecter_base_t", i8, i8, ptr }
%"class.zmq::stream_connecter_base_t" = type { %"class.zmq::own_t.base", %"class.zmq::io_object_t", ptr, i32, ptr, %"class.std::__cxx11::basic_string", ptr, i8, i8, i32, ptr }
%"class.zmq::own_t.base" = type <{ %"class.zmq::object_t.base", [4 x i8], %"struct.zmq::options_t", i8, [7 x i8], %"class.zmq::atomic_counter_t", i64, ptr, %"class.std::set.24", i32 }>
%"class.zmq::object_t.base" = type <{ ptr, ptr, i32 }>
%"struct.zmq::options_t" = type { i32, i32, i64, i8, [256 x i8], i32, i32, i32, i32, i32, i32, i32, i32, i8, %"struct.zmq::atomic_value_t", i32, i32, i32, i32, i32, i32, i64, i32, i32, i8, i32, i8, i8, i8, i8, i8, %"class.std::__cxx11::basic_string", %"class.std::__cxx11::basic_string", %"class.std::__cxx11::basic_string", i32, i32, i32, i32, %"class.std::vector", %"class.std::set", %"class.std::set", %"class.std::set.6", i32, i32, %"class.std::__cxx11::basic_string", %"class.std::__cxx11::basic_string", %"class.std::__cxx11::basic_string", [32 x i8], [32 x i8], [32 x i8], %"class.std::__cxx11::basic_string", %"class.std::__cxx11::basic_string", i32, i32, i8, i32, i8, i32, i8, i16, i32, i32, i32, %"class.std::__cxx11::basic_string", i8, i8, i8, i32, i32, i8, i32, %"class.std::map", i32, %"class.std::__cxx11::basic_string", %"class.std::__cxx11::basic_string", %"class.std::__cxx11::basic_string", %"class.std::__cxx11::basic_string", i8, %"class.std::vector.17", i8, %"class.std::vector.17", i8, %"class.std::vector.17", i8, i32, i8, i32, i32, i32, i32, i32, i8, i32 }
%"struct.zmq::atomic_value_t" = type { %"struct.std::atomic" }
%"struct.std::atomic" = type { %"struct.std::__atomic_base" }
%"struct.std::__atomic_base" = type { i32 }
%"class.std::vector" = type { %"struct.std::_Vector_base" }
%"struct.std::_Vector_base" = type { %"struct.std::_Vector_base<zmq::tcp_address_mask_t, std::allocator<zmq::tcp_address_mask_t>>::_Vector_impl" }
%"struct.std::_Vector_base<zmq::tcp_address_mask_t, std::allocator<zmq::tcp_address_mask_t>>::_Vector_impl" = type { %"struct.std::_Vector_base<zmq::tcp_address_mask_t, std::allocator<zmq::tcp_address_mask_t>>::_Vector_impl_data" }
%"struct.std::_Vector_base<zmq::tcp_address_mask_t, std::allocator<zmq::tcp_address_mask_t>>::_Vector_impl_data" = type { ptr, ptr, ptr }
%"class.std::set" = type { %"class.std::_Rb_tree" }
%"class.std::_Rb_tree" = type { %"struct.std::_Rb_tree<unsigned int, unsigned int, std::_Identity<unsigned int>, std::less<unsigned int>>::_Rb_tree_impl" }
%"struct.std::_Rb_tree<unsigned int, unsigned int, std::_Identity<unsigned int>, std::less<unsigned int>>::_Rb_tree_impl" = type { [8 x i8], %"struct.std::_Rb_tree_header" }
%"struct.std::_Rb_tree_header" = type { %"struct.std::_Rb_tree_node_base", i64 }
%"struct.std::_Rb_tree_node_base" = type { i32, ptr, ptr, ptr }
%"class.std::set.6" = type { %"class.std::_Rb_tree.7" }
%"class.std::_Rb_tree.7" = type { %"struct.std::_Rb_tree<int, int, std::_Identity<int>, std::less<int>>::_Rb_tree_impl" }
%"struct.std::_Rb_tree<int, int, std::_Identity<int>, std::less<int>>::_Rb_tree_impl" = type { [8 x i8], %"struct.std::_Rb_tree_header" }
%"class.std::map" = type { %"class.std::_Rb_tree.12" }
%"class.std::_Rb_tree.12" = type { %"struct.std::_Rb_tree<std::__cxx11::basic_string<char>, std::pair<const std::__cxx11::basic_string<char>, std::__cxx11::basic_string<char>>, std::_Select1st<std::pair<const std::__cxx11::basic_string<char>, std::__cxx11::basic_string<char>>>, std::less<std::__cxx11::basic_string<char>>>::_Rb_tree_impl" }
%"struct.std::_Rb_tree<std::__cxx11::basic_string<char>, std::pair<const std::__cxx11::basic_string<char>, std::__cxx11::basic_string<char>>, std::_Select1st<std::pair<const std::__cxx11::basic_string<char>, std::__cxx11::basic_string<char>>>, std::less<std::__cxx11::basic_string<char>>>::_Rb_tree_impl" = type { [8 x i8], %"struct.std::_Rb_tree_header" }
%"class.std::vector.17" = type { %"struct.std::_Vector_base.18" }
%"struct.std::_Vector_base.18" = type { %"struct.std::_Vector_base<unsigned char, std::allocator<unsigned char>>::_Vector_impl" }
%"struct.std::_Vector_base<unsigned char, std::allocator<unsigned char>>::_Vector_impl" = type { %"struct.std::_Vector_base<unsigned char, std::allocator<unsigned char>>::_Vector_impl_data" }
%"struct.std::_Vector_base<unsigned char, std::allocator<unsigned char>>::_Vector_impl_data" = type { ptr, ptr, ptr }
%"class.zmq::atomic_counter_t" = type { %"struct.std::atomic.22", [4 x i8] }
%"struct.std::atomic.22" = type { %"struct.std::__atomic_base.23" }
%"struct.std::__atomic_base.23" = type { i32 }
%"class.std::set.24" = type { %"class.std::_Rb_tree.25" }
%"class.std::_Rb_tree.25" = type { %"struct.std::_Rb_tree<zmq::own_t *, zmq::own_t *, std::_Identity<zmq::own_t *>, std::less<zmq::own_t *>>::_Rb_tree_impl" }
%"struct.std::_Rb_tree<zmq::own_t *, zmq::own_t *, std::_Identity<zmq::own_t *>, std::less<zmq::own_t *>>::_Rb_tree_impl" = type { [8 x i8], %"struct.std::_Rb_tree_header" }
%"class.zmq::io_object_t" = type { %"struct.zmq::i_poll_events", ptr }
%"struct.zmq::i_poll_events" = type { ptr }
%"class.std::__cxx11::basic_string" = type { %"struct.std::__cxx11::basic_string<char>::_Alloc_hider", i64, %union.anon }
%"struct.std::__cxx11::basic_string<char>::_Alloc_hider" = type { ptr }
%union.anon = type { i64, [8 x i8] }
%"class.zmq::own_t" = type <{ %"class.zmq::object_t.base", [4 x i8], %"struct.zmq::options_t", i8, [7 x i8], %"class.zmq::atomic_counter_t", i64, ptr, %"class.std::set.24", i32, [4 x i8] }>
%"struct.zmq::endpoint_uri_pair_t" = type <{ %"class.std::__cxx11::basic_string", %"class.std::__cxx11::basic_string", i32, [4 x i8] }>
%"struct.zmq::address_t" = type { %"class.std::__cxx11::basic_string", %"class.std::__cxx11::basic_string", ptr, %union.anon.45 }
%union.anon.45 = type { ptr }

@stderr = external global ptr, align 8
@.str.2 = private unnamed_addr constant [112 x i8] c"generated/home/dtcxzyw/WorkSpace/Projects/compilers/llvm-opt-benchmark/bench/libzmq/libzmq/src/ws_connecter.cpp\00", align 1
@_ZSt7nothrow = external global %"struct.std::nothrow_t", align 1
@.str.5 = private unnamed_addr constant [36 x i8] c"FATAL ERROR: OUT OF MEMORY (%s:%d)\0A\00", align 1
@.str.6 = private unnamed_addr constant [27 x i8] c"FATAL ERROR: OUT OF MEMORY\00", align 1

; Function Attrs: mustprogress uwtable
define void @_ZN3zmq14ws_connecter_t13create_engineEiRKNSt7__cxx1112basic_stringIcSt11char_traitsIcESaIcEEE(ptr noundef nonnull align 8 dereferenceable(1560) %0, i32 noundef %1, ptr noundef nonnull align 8 dereferenceable(32) %2) unnamed_addr #0 align 2 personality ptr @__gxx_personality_v0 {
  %4 = alloca ptr, align 8
  %5 = alloca i32, align 4
  %6 = alloca ptr, align 8
  %7 = alloca %"struct.zmq::endpoint_uri_pair_t", align 8
  %8 = alloca ptr, align 8
  %9 = alloca ptr, align 8
  %10 = alloca i1, align 1
  %11 = alloca ptr, align 8
  %12 = alloca i32, align 4
  %13 = alloca ptr, align 8
  %14 = alloca i1, align 1
  store ptr %0, ptr %4, align 8, !tbaa !3
  store i32 %1, ptr %5, align 4, !tbaa !84
  store ptr %2, ptr %6, align 8, !tbaa !18
  %15 = load ptr, ptr %4, align 8
  call void @llvm.lifetime.start.p0(i64 72, ptr %7) #16
  %16 = load ptr, ptr %6, align 8, !tbaa !18
  %17 = getelementptr inbounds nuw %"class.zmq::stream_connecter_base_t", ptr %15, i32 0, i32 5
  call void @_ZN3zmq19endpoint_uri_pair_tC2ERKNSt7__cxx1112basic_stringIcSt11char_traitsIcESaIcEEES8_NS_15endpoint_type_tE(ptr noundef nonnull align 8 dereferenceable(68) %7, ptr noundef nonnull align 8 dereferenceable(32) %16, ptr noundef nonnull align 8 dereferenceable(32) %17, i32 noundef 2)
  call void @llvm.lifetime.start.p0(i64 8, ptr %8) #16
  store ptr null, ptr %8, align 8, !tbaa !88
  %18 = getelementptr inbounds nuw %"class.zmq::ws_connecter_t", ptr %15, i32 0, i32 2
  %19 = load i8, ptr %18, align 1, !tbaa !81, !range !20, !noundef !21
  %20 = trunc i8 %19 to i1
  br i1 %20, label %21, label %49

21:                                               ; preds = %3
  %22 = call noalias noundef ptr @_ZnwmRKSt9nothrow_t(i64 noundef 25720, ptr noundef nonnull align 1 dereferenceable(1) @_ZSt7nothrow) #20
  %23 = icmp eq ptr %22, null
  store i1 false, ptr %10, align 1
  br i1 %23, label %34, label %24

24:                                               ; preds = %21
  store ptr %22, ptr %9, align 8
  store i1 true, ptr %10, align 1
  %25 = load i32, ptr %5, align 4, !tbaa !84
  %26 = getelementptr inbounds nuw %"class.zmq::own_t", ptr %15, i32 0, i32 2
  %27 = getelementptr inbounds nuw %"class.zmq::stream_connecter_base_t", ptr %15, i32 0, i32 2
  %28 = load ptr, ptr %27, align 8, !tbaa !90
  %29 = getelementptr inbounds nuw %"struct.zmq::address_t", ptr %28, i32 0, i32 3
  %30 = load ptr, ptr %29, align 8, !tbaa !91
  %31 = getelementptr inbounds nuw %"class.zmq::ws_connecter_t", ptr %15, i32 0, i32 3
  %32 = load ptr, ptr %31, align 8, !tbaa !92
  invoke void @_ZN3zmq12wss_engine_tC1EiRKNS_9options_tERKNS_19endpoint_uri_pair_tERNS_12ws_address_tEbPvRKNSt7__cxx1112basic_stringIcSt11char_traitsIcESaIcEEE(ptr noundef nonnull align 8 dereferenceable(25720) %22, i32 noundef %25, ptr noundef nonnull align 8 dereferenceable(1336) %26, ptr noundef nonnull align 8 dereferenceable(68) %7, ptr noundef nonnull align 8 dereferenceable(96) %30, i1 noundef zeroext true, ptr noundef null, ptr noundef nonnull align 8 dereferenceable(32) %32)
          to label %33 unwind label %41

33:                                               ; preds = %24
  br label %34

34:                                               ; preds = %33, %21
  %35 = phi ptr [ %22, %33 ], [ null, %21 ]
  %36 = icmp eq ptr %35, null
  br i1 %36, label %39, label %37

37:                                               ; preds = %34
  %38 = getelementptr inbounds i8, ptr %35, i64 16
  br label %39

39:                                               ; preds = %37, %34
  %40 = phi ptr [ %38, %37 ], [ null, %34 ]
  store ptr %40, ptr %8, align 8, !tbaa !88
  br label %75

41:                                               ; preds = %24
  %42 = landingpad { ptr, i32 }
          cleanup
  %43 = extractvalue { ptr, i32 } %42, 0
  store ptr %43, ptr %11, align 8
  %44 = extractvalue { ptr, i32 } %42, 1
  store i32 %44, ptr %12, align 4
  %45 = load i1, ptr %10, align 1
  br i1 %45, label %46, label %48

46:                                               ; preds = %41
  %47 = load ptr, ptr %9, align 8
  call void @_ZdlPvRKSt9nothrow_t(ptr noundef %47, ptr noundef nonnull align 1 dereferenceable(1) @_ZSt7nothrow) #18
  br label %48

48:                                               ; preds = %46, %41
  br label %106

49:                                               ; preds = %3
  %50 = call noalias noundef ptr @_ZnwmRKSt9nothrow_t(i64 noundef 25696, ptr noundef nonnull align 1 dereferenceable(1) @_ZSt7nothrow) #20
  %51 = icmp eq ptr %50, null
  store i1 false, ptr %14, align 1
  br i1 %51, label %60, label %52

52:                                               ; preds = %49
  store ptr %50, ptr %13, align 8
  store i1 true, ptr %14, align 1
  %53 = load i32, ptr %5, align 4, !tbaa !84
  %54 = getelementptr inbounds nuw %"class.zmq::own_t", ptr %15, i32 0, i32 2
  %55 = getelementptr inbounds nuw %"class.zmq::stream_connecter_base_t", ptr %15, i32 0, i32 2
  %56 = load ptr, ptr %55, align 8, !tbaa !90
  %57 = getelementptr inbounds nuw %"struct.zmq::address_t", ptr %56, i32 0, i32 3
  %58 = load ptr, ptr %57, align 8, !tbaa !91
  invoke void @_ZN3zmq11ws_engine_tC1EiRKNS_9options_tERKNS_19endpoint_uri_pair_tERKNS_12ws_address_tEb(ptr noundef nonnull align 8 dereferenceable(25696) %50, i32 noundef %53, ptr noundef nonnull align 8 dereferenceable(1336) %54, ptr noundef nonnull align 8 dereferenceable(68) %7, ptr noundef nonnull align 8 dereferenceable(96) %58, i1 noundef zeroext true)
          to label %59 unwind label %67

59:                                               ; preds = %52
  br label %60

60:                                               ; preds = %59, %49
  %61 = phi ptr [ %50, %59 ], [ null, %49 ]
  %62 = icmp eq ptr %61, null
  br i1 %62, label %65, label %63

63:                                               ; preds = %60
  %64 = getelementptr inbounds i8, ptr %61, i64 16
  br label %65

65:                                               ; preds = %63, %60
  %66 = phi ptr [ %64, %63 ], [ null, %60 ]
  store ptr %66, ptr %8, align 8, !tbaa !88
  br label %75

67:                                               ; preds = %52
  %68 = landingpad { ptr, i32 }
          cleanup
  %69 = extractvalue { ptr, i32 } %68, 0
  store ptr %69, ptr %11, align 8
  %70 = extractvalue { ptr, i32 } %68, 1
  store i32 %70, ptr %12, align 4
  %71 = load i1, ptr %14, align 1
  br i1 %71, label %72, label %74

72:                                               ; preds = %67
  %73 = load ptr, ptr %13, align 8
  call void @_ZdlPvRKSt9nothrow_t(ptr noundef %73, ptr noundef nonnull align 1 dereferenceable(1) @_ZSt7nothrow) #18
  br label %74

74:                                               ; preds = %72, %67
  br label %106

75:                                               ; preds = %65, %39
  br label %76

76:                                               ; preds = %75
  %77 = load ptr, ptr %8, align 8, !tbaa !88
  %78 = icmp ne ptr %77, null
  %79 = xor i1 %78, true
  %80 = zext i1 %79 to i64
  %81 = call i64 @llvm.expect.i64(i64 %80, i64 0)
  %82 = icmp ne i64 %81, 0
  br i1 %82, label %83, label %94

83:                                               ; preds = %76
  %84 = load ptr, ptr @stderr, align 8, !tbaa !82
  %85 = call i32 (ptr, ptr, ...) @fprintf(ptr noundef %84, ptr noundef @.str.5, ptr noundef @.str.2, i32 noundef 270) #16
  %86 = load ptr, ptr @stderr, align 8, !tbaa !82
  %87 = invoke i32 @fflush(ptr noundef %86)
          to label %88 unwind label %90

88:                                               ; preds = %83
  invoke void @_ZN3zmq9zmq_abortEPKc(ptr noundef @.str.6)
          to label %89 unwind label %90

89:                                               ; preds = %88
  br label %94

90:                                               ; preds = %101, %100, %96, %88, %83
  %91 = landingpad { ptr, i32 }
          cleanup
  %92 = extractvalue { ptr, i32 } %91, 0
  store ptr %92, ptr %11, align 8
  %93 = extractvalue { ptr, i32 } %91, 1
  store i32 %93, ptr %12, align 4
  br label %106

94:                                               ; preds = %89, %76
  br label %95

95:                                               ; preds = %94
  br label %96

96:                                               ; preds = %95
  %97 = getelementptr inbounds nuw %"class.zmq::stream_connecter_base_t", ptr %15, i32 0, i32 10
  %98 = load ptr, ptr %97, align 8, !tbaa !93
  %99 = load ptr, ptr %8, align 8, !tbaa !88
  invoke void @_ZN3zmq8object_t11send_attachEPNS_14session_base_tEPNS_8i_engineEb(ptr noundef nonnull align 8 dereferenceable(20) %15, ptr noundef %98, ptr noundef %99, i1 noundef zeroext true)
          to label %100 unwind label %90

100:                                              ; preds = %96
  invoke void @_ZN3zmq5own_t9terminateEv(ptr noundef nonnull align 8 dereferenceable(1444) %15)
          to label %101 unwind label %90

101:                                              ; preds = %100
  %102 = getelementptr inbounds nuw %"class.zmq::stream_connecter_base_t", ptr %15, i32 0, i32 6
  %103 = load ptr, ptr %102, align 8, !tbaa !94
  %104 = load i32, ptr %5, align 4, !tbaa !84
  invoke void @_ZN3zmq13socket_base_t15event_connectedERKNS_19endpoint_uri_pair_tEi(ptr noundef nonnull align 8 dereferenceable(1825) %103, ptr noundef nonnull align 8 dereferenceable(68) %7, i32 noundef %104)
          to label %105 unwind label %90

105:                                              ; preds = %101
  call void @llvm.lifetime.end.p0(i64 8, ptr %8) #16
  call void @_ZN3zmq19endpoint_uri_pair_tD2Ev(ptr noundef nonnull align 8 dereferenceable(68) %7) #16
  call void @llvm.lifetime.end.p0(i64 72, ptr %7) #16
  ret void

106:                                              ; preds = %90, %74, %48
  call void @llvm.lifetime.end.p0(i64 8, ptr %8) #16
  call void @_ZN3zmq19endpoint_uri_pair_tD2Ev(ptr noundef nonnull align 8 dereferenceable(68) %7) #16
  call void @llvm.lifetime.end.p0(i64 72, ptr %7) #16
  br label %107

107:                                              ; preds = %106
  %108 = load ptr, ptr %11, align 8
  %109 = load i32, ptr %12, align 4
  %110 = insertvalue { ptr, i32 } poison, ptr %108, 0
  %111 = insertvalue { ptr, i32 } %110, i32 %109, 1
  resume { ptr, i32 } %111
}