; Function Attrs: mustprogress uwtable
define void @_ZN3zmq14ws_connecter_t13create_engineEiRKNSt7__cxx1112basic_stringIcSt11char_traitsIcESaIcEEE(ptr noundef nonnull align 8 dereferenceable(1560) %0, i32 noundef %1, ptr noundef nonnull align 8 dereferenceable(32) %2) unnamed_addr #0 align 2 personality ptr @__gxx_personality_v0 {
  %4 = alloca %"struct.zmq::endpoint_uri_pair_t", align 8
  call void @llvm.lifetime.start.p0(i64 72, ptr nonnull %4) #17
  %5 = getelementptr inbounds nuw i8, ptr %0, i64 1488
  call void @_ZN3zmq19endpoint_uri_pair_tC2ERKNSt7__cxx1112basic_stringIcSt11char_traitsIcESaIcEEES8_NS_15endpoint_type_tE(ptr noundef nonnull align 8 dereferenceable(68) %4, ptr noundef nonnull align 8 dereferenceable(32) %2, ptr noundef nonnull align 8 dereferenceable(32) %5, i32 noundef 2)
  %6 = getelementptr inbounds nuw i8, ptr %0, i64 1545
  %7 = load i8, ptr %6, align 1, !tbaa !69, !range !71, !noundef !72
  %8 = trunc nuw i8 %7 to i1
  br i1 %8, label %9, label %24

9:                                                ; preds = %3
  %10 = call noalias noundef dereferenceable_or_null(25720) ptr @_ZnwmRKSt9nothrow_t(i64 noundef 25720, ptr noundef nonnull align 1 dereferenceable(1) @_ZSt7nothrow) #21
  %11 = icmp eq ptr %10, null
  br i1 %11, label %select.unfold, label %12

12:                                               ; preds = %9
  %13 = getelementptr inbounds nuw i8, ptr %0, i64 24
  %14 = getelementptr inbounds nuw i8, ptr %0, i64 1464
  %15 = load ptr, ptr %14, align 8, !tbaa !82
  %16 = getelementptr inbounds nuw i8, ptr %15, i64 72
  %17 = load ptr, ptr %16, align 8, !tbaa !83
  %18 = getelementptr inbounds nuw i8, ptr %0, i64 1552
  %19 = load ptr, ptr %18, align 8, !tbaa !84
  invoke void @_ZN3zmq12wss_engine_tC1EiRKNS_9options_tERKNS_19endpoint_uri_pair_tERNS_12ws_address_tEbPvRKNSt7__cxx1112basic_stringIcSt11char_traitsIcESaIcEEE(ptr noundef nonnull align 8 dereferenceable(25720) %10, i32 noundef %1, ptr noundef nonnull align 8 dereferenceable(1336) %13, ptr noundef nonnull align 8 dereferenceable(68) %4, ptr noundef nonnull align 8 dereferenceable(96) %17, i1 noundef zeroext true, ptr noundef null, ptr noundef nonnull align 8 dereferenceable(32) %19)
          to label %20 unwind label %22

20:                                               ; preds = %12
  %21 = getelementptr inbounds nuw i8, ptr %10, i64 16
  br label %43

22:                                               ; preds = %12
  %23 = landingpad { ptr, i32 }
          cleanup
  call void @_ZdlPvRKSt9nothrow_t(ptr noundef nonnull %10, ptr noundef nonnull align 1 dereferenceable(1) @_ZSt7nothrow) #19
  br label %64

24:                                               ; preds = %3
  %25 = call noalias noundef dereferenceable_or_null(25696) ptr @_ZnwmRKSt9nothrow_t(i64 noundef 25696, ptr noundef nonnull align 1 dereferenceable(1) @_ZSt7nothrow) #21
  %26 = icmp eq ptr %25, null
  br i1 %26, label %select.unfold, label %27

27:                                               ; preds = %24
  %28 = getelementptr inbounds nuw i8, ptr %0, i64 24
  %29 = getelementptr inbounds nuw i8, ptr %0, i64 1464
  %30 = load ptr, ptr %29, align 8, !tbaa !82
  %31 = getelementptr inbounds nuw i8, ptr %30, i64 72
  %32 = load ptr, ptr %31, align 8, !tbaa !83
  invoke void @_ZN3zmq11ws_engine_tC1EiRKNS_9options_tERKNS_19endpoint_uri_pair_tERKNS_12ws_address_tEb(ptr noundef nonnull align 8 dereferenceable(25696) %25, i32 noundef %1, ptr noundef nonnull align 8 dereferenceable(1336) %28, ptr noundef nonnull align 8 dereferenceable(68) %4, ptr noundef nonnull align 8 dereferenceable(96) %32, i1 noundef zeroext true)
          to label %33 unwind label %35

33:                                               ; preds = %27
  %34 = getelementptr inbounds nuw i8, ptr %25, i64 16
  br label %43

35:                                               ; preds = %27
  %36 = landingpad { ptr, i32 }
          cleanup
  call void @_ZdlPvRKSt9nothrow_t(ptr noundef nonnull %25, ptr noundef nonnull align 1 dereferenceable(1) @_ZSt7nothrow) #19
  br label %64

select.unfold:                                    ; preds = %24, %9
  %37 = load ptr, ptr @stderr, align 8, !tbaa !74
  %38 = call i32 (ptr, ptr, ...) @fprintf(ptr noundef %37, ptr noundef nonnull @.str.5, ptr noundef nonnull @.str.2, i32 noundef 270) #16
  %39 = load ptr, ptr @stderr, align 8, !tbaa !74
  %40 = call i32 @fflush(ptr noundef %39)
  invoke void @_ZN3zmq9zmq_abortEPKc(ptr noundef nonnull @.str.6)
          to label %43 unwind label %41

41:                                               ; preds = %47, %46, %43, %select.unfold
  %42 = landingpad { ptr, i32 }
          cleanup
  br label %64

43:                                               ; preds = %33, %20, %select.unfold
  %.021 = phi ptr [ null, %select.unfold ], [ %21, %20 ], [ %34, %33 ]
  %44 = getelementptr inbounds nuw i8, ptr %0, i64 1536
  %45 = load ptr, ptr %44, align 8, !tbaa !85
  invoke void @_ZN3zmq8object_t11send_attachEPNS_14session_base_tEPNS_8i_engineEb(ptr noundef nonnull align 8 dereferenceable(20) %0, ptr noundef %45, ptr noundef %.021, i1 noundef zeroext true)
          to label %46 unwind label %41

46:                                               ; preds = %43
  invoke void @_ZN3zmq5own_t9terminateEv(ptr noundef nonnull align 8 dereferenceable(1444) %0)
          to label %47 unwind label %41

47:                                               ; preds = %46
  %48 = getelementptr inbounds nuw i8, ptr %0, i64 1520
  %49 = load ptr, ptr %48, align 8, !tbaa !86
  invoke void @_ZN3zmq13socket_base_t15event_connectedERKNS_19endpoint_uri_pair_tEi(ptr noundef nonnull align 8 dereferenceable(1825) %49, ptr noundef nonnull align 8 dereferenceable(68) %4, i32 noundef %1)
          to label %50 unwind label %41

50:                                               ; preds = %47
  %51 = getelementptr inbounds nuw i8, ptr %4, i64 32
  %52 = load ptr, ptr %51, align 8, !tbaa !77
  %53 = getelementptr inbounds nuw i8, ptr %4, i64 48
  %54 = icmp eq ptr %52, %53
  br i1 %54, label %_ZNKSt7__cxx1112basic_stringIcSt11char_traitsIcESaIcEE11_M_is_localEv.exit.thread.i.i.i, label %_ZNKSt7__cxx1112basic_stringIcSt11char_traitsIcESaIcEE11_M_is_localEv.exit.i.i.i

_ZNKSt7__cxx1112basic_stringIcSt11char_traitsIcESaIcEE11_M_is_localEv.exit.thread.i.i.i: ; preds = %50
  %55 = getelementptr inbounds nuw i8, ptr %4, i64 40
  %56 = load i64, ptr %55, align 8, !tbaa !78
  %57 = icmp ult i64 %56, 16
  call void @llvm.assume(i1 %57)
  br label %_ZNSt7__cxx1112basic_stringIcSt11char_traitsIcESaIcEED2Ev.exit.i

_ZNKSt7__cxx1112basic_stringIcSt11char_traitsIcESaIcEE11_M_is_localEv.exit.i.i.i: ; preds = %50
  call void @_ZdlPv(ptr noundef %52) #19
  br label %_ZNSt7__cxx1112basic_stringIcSt11char_traitsIcESaIcEED2Ev.exit.i

_ZNSt7__cxx1112basic_stringIcSt11char_traitsIcESaIcEED2Ev.exit.i: ; preds = %_ZNKSt7__cxx1112basic_stringIcSt11char_traitsIcESaIcEE11_M_is_localEv.exit.i.i.i, %_ZNKSt7__cxx1112basic_stringIcSt11char_traitsIcESaIcEE11_M_is_localEv.exit.thread.i.i.i
  %58 = load ptr, ptr %4, align 8, !tbaa !77
  %59 = getelementptr inbounds nuw i8, ptr %4, i64 16
  %60 = icmp eq ptr %58, %59
  br i1 %60, label %_ZNKSt7__cxx1112basic_stringIcSt11char_traitsIcESaIcEE11_M_is_localEv.exit.thread.i.i2.i, label %_ZNKSt7__cxx1112basic_stringIcSt11char_traitsIcESaIcEE11_M_is_localEv.exit.i.i1.i

_ZNKSt7__cxx1112basic_stringIcSt11char_traitsIcESaIcEE11_M_is_localEv.exit.thread.i.i2.i: ; preds = %_ZNSt7__cxx1112basic_stringIcSt11char_traitsIcESaIcEED2Ev.exit.i
  %61 = getelementptr inbounds nuw i8, ptr %4, i64 8
  %62 = load i64, ptr %61, align 8, !tbaa !78
  %63 = icmp ult i64 %62, 16
  call void @llvm.assume(i1 %63)
  br label %_ZN3zmq19endpoint_uri_pair_tD2Ev.exit

_ZNKSt7__cxx1112basic_stringIcSt11char_traitsIcESaIcEE11_M_is_localEv.exit.i.i1.i: ; preds = %_ZNSt7__cxx1112basic_stringIcSt11char_traitsIcESaIcEED2Ev.exit.i
  call void @_ZdlPv(ptr noundef %58) #19
  br label %_ZN3zmq19endpoint_uri_pair_tD2Ev.exit

_ZN3zmq19endpoint_uri_pair_tD2Ev.exit:            ; preds = %_ZNKSt7__cxx1112basic_stringIcSt11char_traitsIcESaIcEE11_M_is_localEv.exit.thread.i.i2.i, %_ZNKSt7__cxx1112basic_stringIcSt11char_traitsIcESaIcEE11_M_is_localEv.exit.i.i1.i
  call void @llvm.lifetime.end.p0(i64 72, ptr nonnull %4) #17
  ret void

64:                                               ; preds = %35, %22, %41
  %.pn = phi { ptr, i32 } [ %42, %41 ], [ %23, %22 ], [ %36, %35 ]
  call void @_ZN3zmq19endpoint_uri_pair_tD2Ev(ptr noundef nonnull align 8 dereferenceable(68) %4) #17
  call void @llvm.lifetime.end.p0(i64 72, ptr nonnull %4) #17
  resume { ptr, i32 } %.pn
}